target datalayout = "e-m:e-p270:32:32-p271:32:32-p272:64:64-i64:64-i128:128-f80:128-n8:16:32:64-S128"
target triple = "x86_64-pc-linux-gnu"

%struct.png_struct_def = type { [1 x %struct.__jmp_buf_tag], ptr, ptr, i64, ptr, ptr, ptr, ptr, ptr, ptr, ptr, ptr, ptr, i8, i8, i32, i32, i32, i32, %struct.z_stream_s, ptr, i32, i32, i32, i32, i32, i32, i32, i32, i32, i32, i32, i32, i32, i32, i32, i32, i32, i32, i32, i32, i32, i64, i32, i32, i32, ptr, ptr, ptr, ptr, i64, i32, i32, ptr, i16, i32, i16, i8, i8, i8, i8, i8, i8, i8, i8, i8, i8, i8, i8, i8, i8, i8, i16, i8, i32, %struct.png_color_16_struct, %struct.png_color_16_struct, ptr, i32, i32, %struct.png_xy, i32, i32, i32, i32, i32, ptr, ptr, ptr, ptr, ptr, ptr, %struct.png_color_8_struct, %struct.png_color_8_struct, ptr, %struct.png_color_16_struct, ptr, ptr, ptr, ptr, ptr, ptr, ptr, ptr, ptr, i32, i32, i64, i64, i64, i64, i32, i32, ptr, ptr, i32, [29 x i8], i32, ptr, ptr, i32, i32, ptr, i8, i8, i16, i16, ptr, i32, i8, ptr, ptr, ptr, ptr, ptr, ptr, ptr, i8, i32, i32, i32, i64, %struct.png_unknown_chunk_t, i64, ptr, i64, i32, i32, ptr, [4 x ptr] }
%struct.__jmp_buf_tag = type { [8 x i64], i32, %struct.__sigset_t }
%struct.__sigset_t = type { [16 x i64] }
%struct.z_stream_s = type { ptr, i32, i64, ptr, i32, i64, ptr, ptr, ptr, ptr, ptr, i32, i64, i64 }
%struct.png_xy = type { i32, i32, i32, i32, i32, i32, i32, i32 }
%struct.png_color_8_struct = type { i8, i8, i8, i8, i8 }
%struct.png_color_16_struct = type { i8, i16, i16, i16, i16 }
%struct.png_unknown_chunk_t = type { [5 x i8], ptr, i64, i8 }

@.str.12 = private unnamed_addr constant [13 x i8] c"out of place\00", align 1
@.str.30 = private unnamed_addr constant [8 x i8] c"invalid\00", align 1
@.str.54 = private unnamed_addr constant [27 x i8] c"invalid with alpha channel\00", align 1

; Function Attrs: nounwind uwtable
define void @png_crc_read(ptr noalias noundef %0, ptr noundef %1, i32 noundef %2) #0 {
  %4 = alloca ptr, align 8
  %5 = alloca ptr, align 8
  %6 = alloca i32, align 4
  store ptr %0, ptr %4, align 8, !tbaa !3
  store ptr %1, ptr %5, align 8, !tbaa !8
  store i32 %2, ptr %6, align 4, !tbaa !11
  %7 = load ptr, ptr %4, align 8, !tbaa !3
  %8 = icmp eq ptr %7, null
  br i1 %8, label %9, label %10

9:                                                ; preds = %3
  br label %19

10:                                               ; preds = %3
  %11 = load ptr, ptr %4, align 8, !tbaa !3
  %12 = load ptr, ptr %5, align 8, !tbaa !8
  %13 = load i32, ptr %6, align 4, !tbaa !11
  %14 = zext i32 %13 to i64
  call void @png_read_data(ptr noundef %11, ptr noundef %12, i64 noundef %14)
  %15 = load ptr, ptr %4, align 8, !tbaa !3
  %16 = load ptr, ptr %5, align 8, !tbaa !8
  %17 = load i32, ptr %6, align 4, !tbaa !11
  %18 = zext i32 %17 to i64
  call void @png_calculate_crc(ptr noundef %15, ptr noundef %16, i64 noundef %18)
  br label %19

19:                                               ; preds = %10, %9
  ret void
}

; Function Attrs: nounwind uwtable
define i32 @png_crc_finish(ptr noalias noundef %0, i32 noundef %1) #0 {
  %3 = alloca ptr, align 8
  %4 = alloca i32, align 4
  store ptr %0, ptr %3, align 8, !tbaa !3
  store i32 %1, ptr %4, align 4, !tbaa !11
  %5 = load ptr, ptr %3, align 8, !tbaa !3
  %6 = load i32, ptr %4, align 4, !tbaa !11
  %7 = call i32 @png_crc_finish_critical(ptr noundef %5, i32 noundef %6, i32 noundef 0)
  ret i32 %7
}

; Function Attrs: nounwind uwtable
define internal i32 @png_handle_tRNS(ptr noalias noundef %0, ptr noalias noundef %1, i32 noundef %2) #0 {
  %4 = alloca i32, align 4
  %5 = alloca ptr, align 8
  %6 = alloca ptr, align 8
  %7 = alloca i32, align 4
  %8 = alloca [256 x i8], align 16
  %9 = alloca [2 x i8], align 1
  %10 = alloca i32, align 4
  %11 = alloca [6 x i8], align 1
  store ptr %0, ptr %5, align 8, !tbaa !3
  store ptr %1, ptr %6, align 8, !tbaa !13
  store i32 %2, ptr %7, align 4, !tbaa !11
  call void @llvm.lifetime.start.p0(i64 256, ptr %8) #7
  %12 = load ptr, ptr %5, align 8, !tbaa !3
  %13 = getelementptr inbounds nuw %struct.png_struct_def, ptr %12, i32 0, i32 62
  %14 = load i8, ptr %13, align 1, !tbaa !102
  %15 = zext i8 %14 to i32
  %16 = icmp eq i32 %15, 0
  br i1 %16, label %17, label %46

17:                                               ; preds = %3
  call void @llvm.lifetime.start.p0(i64 2, ptr %9) #7
  %18 = load i32, ptr %7, align 4, !tbaa !11
  %19 = icmp ne i32 %18, 2
  br i1 %19, label %20, label %25

20:                                               ; preds = %17
  %21 = load ptr, ptr %5, align 8, !tbaa !3
  %22 = load i32, ptr %7, align 4, !tbaa !11
  %23 = call i32 @png_crc_finish(ptr noundef %21, i32 noundef %22)
  %24 = load ptr, ptr %5, align 8, !tbaa !3
  call void @png_chunk_benign_error(ptr noundef %24, ptr noundef @.str.30)
  store i32 0, ptr %4, align 4
  store i32 1, ptr %10, align 4
  br label %43

25:                                               ; preds = %17
  %26 = load ptr, ptr %5, align 8, !tbaa !3
  %27 = getelementptr inbounds [2 x i8], ptr %9, i64 0, i64 0
  call void @png_crc_read(ptr noundef %26, ptr noundef %27, i32 noundef 2)
  %28 = load ptr, ptr %5, align 8, !tbaa !3
  %29 = getelementptr inbounds nuw %struct.png_struct_def, ptr %28, i32 0, i32 56
  store i16 1, ptr %29, align 8, !tbaa !103
  %30 = getelementptr inbounds [2 x i8], ptr %9, i64 0, i64 0
  %31 = load i8, ptr %30, align 1, !tbaa !10
  %32 = zext i8 %31 to i32
  %33 = shl i32 %32, 8
  %34 = getelementptr inbounds [2 x i8], ptr %9, i64 0, i64 0
  %35 = getelementptr inbounds i8, ptr %34, i64 1
  %36 = load i8, ptr %35, align 1, !tbaa !10
  %37 = zext i8 %36 to i32
  %38 = add i32 %33, %37
  %39 = trunc i32 %38 to i16
  %40 = load ptr, ptr %5, align 8, !tbaa !3
  %41 = getelementptr inbounds nuw %struct.png_struct_def, ptr %40, i32 0, i32 95
  %42 = getelementptr inbounds nuw %struct.png_color_16_struct, ptr %41, i32 0, i32 4
  store i16 %39, ptr %42, align 8, !tbaa !195
  store i32 0, ptr %10, align 4
  br label %43

43:                                               ; preds = %25, %20
  call void @llvm.lifetime.end.p0(i64 2, ptr %9) #7
  %44 = load i32, ptr %10, align 4
  switch i32 %44, label %179 [
    i32 0, label %45
  ]

45:                                               ; preds = %43
  br label %162

46:                                               ; preds = %3
  %47 = load ptr, ptr %5, align 8, !tbaa !3
  %48 = getelementptr inbounds nuw %struct.png_struct_def, ptr %47, i32 0, i32 62
  %49 = load i8, ptr %48, align 1, !tbaa !102
  %50 = zext i8 %49 to i32
  %51 = icmp eq i32 %50, 2
  br i1 %51, label %52, label %112

52:                                               ; preds = %46
  call void @llvm.lifetime.start.p0(i64 6, ptr %11) #7
  %53 = load i32, ptr %7, align 4, !tbaa !11
  %54 = icmp ne i32 %53, 6
  br i1 %54, label %55, label %60

55:                                               ; preds = %52
  %56 = load ptr, ptr %5, align 8, !tbaa !3
  %57 = load i32, ptr %7, align 4, !tbaa !11
  %58 = call i32 @png_crc_finish(ptr noundef %56, i32 noundef %57)
  %59 = load ptr, ptr %5, align 8, !tbaa !3
  call void @png_chunk_benign_error(ptr noundef %59, ptr noundef @.str.30)
  store i32 0, ptr %4, align 4
  store i32 1, ptr %10, align 4
  br label %109

60:                                               ; preds = %52
  %61 = load ptr, ptr %5, align 8, !tbaa !3
  %62 = getelementptr inbounds [6 x i8], ptr %11, i64 0, i64 0
  %63 = load i32, ptr %7, align 4, !tbaa !11
  call void @png_crc_read(ptr noundef %61, ptr noundef %62, i32 noundef %63)
  %64 = load ptr, ptr %5, align 8, !tbaa !3
  %65 = getelementptr inbounds nuw %struct.png_struct_def, ptr %64, i32 0, i32 56
  store i16 1, ptr %65, align 8, !tbaa !103
  %66 = getelementptr inbounds [6 x i8], ptr %11, i64 0, i64 0
  %67 = load i8, ptr %66, align 1, !tbaa !10
  %68 = zext i8 %67 to i32
  %69 = shl i32 %68, 8
  %70 = getelementptr inbounds [6 x i8], ptr %11, i64 0, i64 0
  %71 = getelementptr inbounds i8, ptr %70, i64 1
  %72 = load i8, ptr %71, align 1, !tbaa !10
  %73 = zext i8 %72 to i32
  %74 = add i32 %69, %73
  %75 = trunc i32 %74 to i16
  %76 = load ptr, ptr %5, align 8, !tbaa !3
  %77 = getelementptr inbounds nuw %struct.png_struct_def, ptr %76, i32 0, i32 95
  %78 = getelementptr inbounds nuw %struct.png_color_16_struct, ptr %77, i32 0, i32 1
  store i16 %75, ptr %78, align 2, !tbaa !196
  %79 = getelementptr inbounds [6 x i8], ptr %11, i64 0, i64 0
  %80 = getelementptr inbounds i8, ptr %79, i64 2
  %81 = load i8, ptr %80, align 1, !tbaa !10
  %82 = zext i8 %81 to i32
  %83 = shl i32 %82, 8
  %84 = getelementptr inbounds [6 x i8], ptr %11, i64 0, i64 0
  %85 = getelementptr inbounds i8, ptr %84, i64 2
  %86 = getelementptr inbounds i8, ptr %85, i64 1
  %87 = load i8, ptr %86, align 1, !tbaa !10
  %88 = zext i8 %87 to i32
  %89 = add i32 %83, %88
  %90 = trunc i32 %89 to i16
  %91 = load ptr, ptr %5, align 8, !tbaa !3
  %92 = getelementptr inbounds nuw %struct.png_struct_def, ptr %91, i32 0, i32 95
  %93 = getelementptr inbounds nuw %struct.png_color_16_struct, ptr %92, i32 0, i32 2
  store i16 %90, ptr %93, align 4, !tbaa !197
  %94 = getelementptr inbounds [6 x i8], ptr %11, i64 0, i64 0
  %95 = getelementptr inbounds i8, ptr %94, i64 4
  %96 = load i8, ptr %95, align 1, !tbaa !10
  %97 = zext i8 %96 to i32
  %98 = shl i32 %97, 8
  %99 = getelementptr inbounds [6 x i8], ptr %11, i64 0, i64 0
  %100 = getelementptr inbounds i8, ptr %99, i64 4
  %101 = getelementptr inbounds i8, ptr %100, i64 1
  %102 = load i8, ptr %101, align 1, !tbaa !10
  %103 = zext i8 %102 to i32
  %104 = add i32 %98, %103
  %105 = trunc i32 %104 to i16
  %106 = load ptr, ptr %5, align 8, !tbaa !3
  %107 = getelementptr inbounds nuw %struct.png_struct_def, ptr %106, i32 0, i32 95
  %108 = getelementptr inbounds nuw %struct.png_color_16_struct, ptr %107, i32 0, i32 3
  store i16 %105, ptr %108, align 2, !tbaa !198
  store i32 0, ptr %10, align 4
  br label %109

109:                                              ; preds = %60, %55
  call void @llvm.lifetime.end.p0(i64 6, ptr %11) #7
  %110 = load i32, ptr %10, align 4
  switch i32 %110, label %179 [
    i32 0, label %111
  ]

111:                                              ; preds = %109
  br label %161

112:                                              ; preds = %46
  %113 = load ptr, ptr %5, align 8, !tbaa !3
  %114 = getelementptr inbounds nuw %struct.png_struct_def, ptr %113, i32 0, i32 62
  %115 = load i8, ptr %114, align 1, !tbaa !102
  %116 = zext i8 %115 to i32
  %117 = icmp eq i32 %116, 3
  br i1 %117, label %118, label %155

118:                                              ; preds = %112
  %119 = load ptr, ptr %5, align 8, !tbaa !3
  %120 = getelementptr inbounds nuw %struct.png_struct_def, ptr %119, i32 0, i32 15
  %121 = load i32, ptr %120, align 4, !tbaa !31
  %122 = and i32 %121, 2
  %123 = icmp eq i32 %122, 0
  br i1 %123, label %124, label %129

124:                                              ; preds = %118
  %125 = load ptr, ptr %5, align 8, !tbaa !3
  %126 = load i32, ptr %7, align 4, !tbaa !11
  %127 = call i32 @png_crc_finish(ptr noundef %125, i32 noundef %126)
  %128 = load ptr, ptr %5, align 8, !tbaa !3
  call void @png_chunk_benign_error(ptr noundef %128, ptr noundef @.str.12)
  store i32 0, ptr %4, align 4
  store i32 1, ptr %10, align 4
  br label %179

129:                                              ; preds = %118
  %130 = load i32, ptr %7, align 4, !tbaa !11
  %131 = load ptr, ptr %5, align 8, !tbaa !3
  %132 = getelementptr inbounds nuw %struct.png_struct_def, ptr %131, i32 0, i32 54
  %133 = load i16, ptr %132, align 8, !tbaa !143
  %134 = zext i16 %133 to i32
  %135 = icmp ugt i32 %130, %134
  br i1 %135, label %142, label %136

136:                                              ; preds = %129
  %137 = load i32, ptr %7, align 4, !tbaa !11
  %138 = icmp ugt i32 %137, 256
  br i1 %138, label %142, label %139

139:                                              ; preds = %136
  %140 = load i32, ptr %7, align 4, !tbaa !11
  %141 = icmp eq i32 %140, 0
  br i1 %141, label %142, label %147

142:                                              ; preds = %139, %136, %129
  %143 = load ptr, ptr %5, align 8, !tbaa !3
  %144 = load i32, ptr %7, align 4, !tbaa !11
  %145 = call i32 @png_crc_finish(ptr noundef %143, i32 noundef %144)
  %146 = load ptr, ptr %5, align 8, !tbaa !3
  call void @png_chunk_benign_error(ptr noundef %146, ptr noundef @.str.30)
  store i32 0, ptr %4, align 4
  store i32 1, ptr %10, align 4
  br label %179

147:                                              ; preds = %139
  %148 = load ptr, ptr %5, align 8, !tbaa !3
  %149 = getelementptr inbounds [256 x i8], ptr %8, i64 0, i64 0
  %150 = load i32, ptr %7, align 4, !tbaa !11
  call void @png_crc_read(ptr noundef %148, ptr noundef %149, i32 noundef %150)
  %151 = load i32, ptr %7, align 4, !tbaa !11
  %152 = trunc i32 %151 to i16
  %153 = load ptr, ptr %5, align 8, !tbaa !3
  %154 = getelementptr inbounds nuw %struct.png_struct_def, ptr %153, i32 0, i32 56
  store i16 %152, ptr %154, align 8, !tbaa !103
  br label %160

155:                                              ; preds = %112
  %156 = load ptr, ptr %5, align 8, !tbaa !3
  %157 = load i32, ptr %7, align 4, !tbaa !11
  %158 = call i32 @png_crc_finish(ptr noundef %156, i32 noundef %157)
  %159 = load ptr, ptr %5, align 8, !tbaa !3
  call void @png_chunk_benign_error(ptr noundef %159, ptr noundef @.str.54)
  store i32 0, ptr %4, align 4
  store i32 1, ptr %10, align 4
  br label %179

160:                                              ; preds = %147
  br label %161

161:                                              ; preds = %160, %111
  br label %162

162:                                              ; preds = %161, %45
  %163 = load ptr, ptr %5, align 8, !tbaa !3
  %164 = call i32 @png_crc_finish(ptr noundef %163, i32 noundef 0)
  %165 = icmp ne i32 %164, 0
  br i1 %165, label %166, label %169

166:                                              ; preds = %162
  %167 = load ptr, ptr %5, align 8, !tbaa !3
  %168 = getelementptr inbounds nuw %struct.png_struct_def, ptr %167, i32 0, i32 56
  store i16 0, ptr %168, align 8, !tbaa !103
  store i32 0, ptr %4, align 4
  store i32 1, ptr %10, align 4
  br label %179

169:                                              ; preds = %162
  %170 = load ptr, ptr %5, align 8, !tbaa !3
  %171 = load ptr, ptr %6, align 8, !tbaa !13
  %172 = getelementptr inbounds [256 x i8], ptr %8, i64 0, i64 0
  %173 = load ptr, ptr %5, align 8, !tbaa !3
  %174 = getelementptr inbounds nuw %struct.png_struct_def, ptr %173, i32 0, i32 56
  %175 = load i16, ptr %174, align 8, !tbaa !103
  %176 = zext i16 %175 to i32
  %177 = load ptr, ptr %5, align 8, !tbaa !3
  %178 = getelementptr inbounds nuw %struct.png_struct_def, ptr %177, i32 0, i32 95
  call void @png_set_tRNS(ptr noundef %170, ptr noundef %171, ptr noundef %172, i32 noundef %176, ptr noundef %178)
  store i32 3, ptr %4, align 4
  store i32 1, ptr %10, align 4
  br label %179

179:                                              ; preds = %169, %166, %155, %142, %124, %109, %43
  call void @llvm.lifetime.end.p0(i64 256, ptr %8) #7
  %180 = load i32, ptr %4, align 4
  ret i32 %180
}