; Function Attrs: nounwind uwtable
define internal range(i32 0, 4) i32 @png_handle_tRNS(ptr noalias noundef %0, ptr noalias noundef %1, i32 noundef %2) #0 {
  %4 = alloca [256 x i8], align 16
  %5 = alloca [2 x i8], align 1
  %6 = alloca [6 x i8], align 1
  call void @llvm.lifetime.start.p0(i64 256, ptr nonnull %4) #12
  %7 = getelementptr inbounds nuw i8, ptr %0, i64 623
  %8 = load i8, ptr %7, align 1, !tbaa !124
  switch i8 %8, label %70 [
    i8 0, label %9
    i8 2, label %21
    i8 3, label %51
  ]

9:                                                ; preds = %3
  call void @llvm.lifetime.start.p0(i64 2, ptr nonnull %5) #12
  %.not55 = icmp eq i32 %2, 2
  br i1 %.not55, label %.thread, label %19

.thread:                                          ; preds = %9
  call void @png_read_data(ptr noundef nonnull %0, ptr noundef nonnull %5, i64 noundef 2) #12
  call void @png_calculate_crc(ptr noundef nonnull %0, ptr noundef nonnull %5, i64 noundef 2) #12
  %10 = getelementptr inbounds nuw i8, ptr %0, i64 616
  store i16 1, ptr %10, align 8, !tbaa !125
  %11 = load i8, ptr %5, align 1, !tbaa !3
  %12 = zext i8 %11 to i16
  %13 = shl nuw i16 %12, 8
  %14 = getelementptr inbounds nuw i8, ptr %5, i64 1
  %15 = load i8, ptr %14, align 1, !tbaa !3
  %16 = zext i8 %15 to i16
  %17 = or disjoint i16 %13, %16
  %18 = getelementptr inbounds nuw i8, ptr %0, i64 816
  store i16 %17, ptr %18, align 8, !tbaa !232
  call void @llvm.lifetime.end.p0(i64 2, ptr nonnull %5) #12
  br label %72

19:                                               ; preds = %9
  %20 = tail call fastcc range(i32 0, 2) i32 @png_crc_finish_critical(ptr noundef nonnull %0, i32 noundef %2, i32 noundef 0)
  tail call void @png_chunk_benign_error(ptr noundef nonnull %0, ptr noundef nonnull @.str.30) #12
  call void @llvm.lifetime.end.p0(i64 2, ptr nonnull %5) #12
  br label %80

21:                                               ; preds = %3
  call void @llvm.lifetime.start.p0(i64 6, ptr nonnull %6) #12
  %.not = icmp eq i32 %2, 6
  br i1 %.not, label %.thread59, label %49

.thread59:                                        ; preds = %21
  call void @png_read_data(ptr noundef nonnull %0, ptr noundef nonnull %6, i64 noundef 6) #12
  call void @png_calculate_crc(ptr noundef nonnull %0, ptr noundef nonnull %6, i64 noundef 6) #12
  %22 = getelementptr inbounds nuw i8, ptr %0, i64 616
  store i16 1, ptr %22, align 8, !tbaa !125
  %23 = load i8, ptr %6, align 1, !tbaa !3
  %24 = zext i8 %23 to i16
  %25 = shl nuw i16 %24, 8
  %26 = getelementptr inbounds nuw i8, ptr %6, i64 1
  %27 = load i8, ptr %26, align 1, !tbaa !3
  %28 = zext i8 %27 to i16
  %29 = or disjoint i16 %25, %28
  %30 = getelementptr inbounds nuw i8, ptr %0, i64 810
  store i16 %29, ptr %30, align 2, !tbaa !233
  %31 = getelementptr inbounds nuw i8, ptr %6, i64 2
  %32 = load i8, ptr %31, align 1, !tbaa !3
  %33 = zext i8 %32 to i16
  %34 = shl nuw i16 %33, 8
  %35 = getelementptr inbounds nuw i8, ptr %6, i64 3
  %36 = load i8, ptr %35, align 1, !tbaa !3
  %37 = zext i8 %36 to i16
  %38 = or disjoint i16 %34, %37
  %39 = getelementptr inbounds nuw i8, ptr %0, i64 812
  store i16 %38, ptr %39, align 4, !tbaa !234
  %40 = getelementptr inbounds nuw i8, ptr %6, i64 4
  %41 = load i8, ptr %40, align 1, !tbaa !3
  %42 = zext i8 %41 to i16
  %43 = shl nuw i16 %42, 8
  %44 = getelementptr inbounds nuw i8, ptr %6, i64 5
  %45 = load i8, ptr %44, align 1, !tbaa !3
  %46 = zext i8 %45 to i16
  %47 = or disjoint i16 %43, %46
  %48 = getelementptr inbounds nuw i8, ptr %0, i64 814
  store i16 %47, ptr %48, align 2, !tbaa !235
  call void @llvm.lifetime.end.p0(i64 6, ptr nonnull %6) #12
  br label %72

49:                                               ; preds = %21
  %50 = tail call fastcc range(i32 0, 2) i32 @png_crc_finish_critical(ptr noundef nonnull %0, i32 noundef %2, i32 noundef 0)
  tail call void @png_chunk_benign_error(ptr noundef nonnull %0, ptr noundef nonnull @.str.30) #12
  call void @llvm.lifetime.end.p0(i64 6, ptr nonnull %6) #12
  br label %80

51:                                               ; preds = %3
  %52 = getelementptr inbounds nuw i8, ptr %0, i64 300
  %53 = load i32, ptr %52, align 4, !tbaa !24
  %54 = and i32 %53, 2
  %55 = icmp eq i32 %54, 0
  br i1 %55, label %56, label %58

56:                                               ; preds = %51
  %57 = tail call fastcc range(i32 0, 2) i32 @png_crc_finish_critical(ptr noundef nonnull %0, i32 noundef %2, i32 noundef 0)
  tail call void @png_chunk_benign_error(ptr noundef nonnull %0, ptr noundef nonnull @.str.12) #12
  br label %80

58:                                               ; preds = %51
  %59 = getelementptr inbounds nuw i8, ptr %0, i64 608
  %60 = load i16, ptr %59, align 8, !tbaa !165
  %61 = zext i16 %60 to i32
  %62 = icmp ugt i32 %2, 256
  %63 = add i32 %2, -1
  %64 = icmp uge i32 %63, %61
  %or.cond4 = or i1 %62, %64
  br i1 %or.cond4, label %65, label %png_crc_read.exit58

65:                                               ; preds = %58
  %66 = tail call fastcc range(i32 0, 2) i32 @png_crc_finish_critical(ptr noundef nonnull %0, i32 noundef %2, i32 noundef 0)
  tail call void @png_chunk_benign_error(ptr noundef nonnull %0, ptr noundef nonnull @.str.30) #12
  br label %80

png_crc_read.exit58:                              ; preds = %58
  %67 = zext nneg i32 %2 to i64
  call void @png_read_data(ptr noundef nonnull %0, ptr noundef nonnull %4, i64 noundef %67) #12
  call void @png_calculate_crc(ptr noundef nonnull %0, ptr noundef nonnull %4, i64 noundef %67) #12
  %68 = trunc nuw nsw i32 %2 to i16
  %69 = getelementptr inbounds nuw i8, ptr %0, i64 616
  store i16 %68, ptr %69, align 8, !tbaa !125
  br label %72

70:                                               ; preds = %3
  %71 = tail call fastcc range(i32 0, 2) i32 @png_crc_finish_critical(ptr noundef nonnull %0, i32 noundef %2, i32 noundef 0)
  tail call void @png_chunk_benign_error(ptr noundef nonnull %0, ptr noundef nonnull @.str.54) #12
  br label %80

72:                                               ; preds = %.thread59, %.thread, %png_crc_read.exit58
  %73 = call fastcc range(i32 0, 2) i32 @png_crc_finish_critical(ptr noundef nonnull %0, i32 noundef 0, i32 noundef 0)
  %.not56 = icmp eq i32 %73, 0
  %74 = getelementptr inbounds nuw i8, ptr %0, i64 616
  br i1 %.not56, label %76, label %75

75:                                               ; preds = %72
  store i16 0, ptr %74, align 8, !tbaa !125
  br label %80

76:                                               ; preds = %72
  %77 = load i16, ptr %74, align 8, !tbaa !125
  %78 = zext i16 %77 to i32
  %79 = getelementptr inbounds nuw i8, ptr %0, i64 808
  call void @png_set_tRNS(ptr noundef nonnull %0, ptr noundef %1, ptr noundef nonnull %4, i32 noundef %78, ptr noundef nonnull %79) #12
  br label %80

80:                                               ; preds = %49, %19, %76, %75, %70, %65, %56
  %.151 = phi i32 [ 0, %75 ], [ 3, %76 ], [ 0, %19 ], [ 0, %49 ], [ 0, %56 ], [ 0, %65 ], [ 0, %70 ]
  call void @llvm.lifetime.end.p0(i64 256, ptr nonnull %4) #12
  ret i32 %.151
}